; Function Attrs: mustprogress nounwind uwtable
define hidden noundef zeroext i1 @_ZN14PhaseIdealLoop22can_move_to_inner_loopEP4NodeP8LoopNodeS1_(ptr noundef nonnull align 8 dereferenceable(237) %0, ptr nocapture readnone %1, ptr noundef readonly %2, ptr noundef %3) local_unnamed_addr #0 align 2 {
  %.not.i.i = icmp eq ptr %2, null
  br i1 %.not.i.i, label %5, label %7

5:                                                ; preds = %4
  %6 = load ptr, ptr @g_assert_poison, align 8
  store i8 88, ptr %6, align 1
  tail call void (ptr, i32, ptr, ptr, ...) @_Z15report_vm_errorPKciS0_S0_z(ptr noundef nonnull @.str.17, i32 noundef 976, ptr noundef nonnull @.str.22, ptr noundef nonnull @.str.23) #10
  unreachable

7:                                                ; preds = %4
  %8 = getelementptr inbounds i8, ptr %2, i64 40
  %9 = load i32, ptr %8, align 8
  %10 = getelementptr inbounds i8, ptr %0, i64 32
  %11 = load i32, ptr %10, align 8
  %12 = icmp ugt i32 %11, %9
  br i1 %12, label %_ZNK14PhaseIdealLoop8has_nodeEPK4Node.exit.i, label %_ZNK14PhaseIdealLoop8has_nodeEPK4Node.exit.thread.i

_ZNK14PhaseIdealLoop8has_nodeEPK4Node.exit.i:     ; preds = %7
  %13 = getelementptr inbounds i8, ptr %0, i64 40
  %14 = load ptr, ptr %13, align 8
  %15 = zext i32 %9 to i64
  %16 = getelementptr inbounds ptr, ptr %14, i64 %15
  %17 = load ptr, ptr %16, align 8
  %.not.i = icmp eq ptr %17, null
  br i1 %.not.i, label %_ZNK14PhaseIdealLoop8has_nodeEPK4Node.exit.thread.i, label %_ZNK14PhaseIdealLoop8get_loopEP4Node.exit

_ZNK14PhaseIdealLoop8has_nodeEPK4Node.exit.thread.i: ; preds = %_ZNK14PhaseIdealLoop8has_nodeEPK4Node.exit.i, %7
  %18 = getelementptr inbounds i8, ptr %0, i64 64
  %19 = load ptr, ptr %18, align 8
  br label %_ZNK14PhaseIdealLoop8get_loopEP4Node.exit

_ZNK14PhaseIdealLoop8get_loopEP4Node.exit:        ; preds = %_ZNK14PhaseIdealLoop8has_nodeEPK4Node.exit.i, %_ZNK14PhaseIdealLoop8has_nodeEPK4Node.exit.thread.i
  %.0.i = phi ptr [ %19, %_ZNK14PhaseIdealLoop8has_nodeEPK4Node.exit.thread.i ], [ %17, %_ZNK14PhaseIdealLoop8has_nodeEPK4Node.exit.i ]
  %20 = tail call noundef ptr @_ZN14PhaseIdealLoop14get_early_ctrlEP4Node(ptr noundef nonnull align 8 dereferenceable(237) %0, ptr noundef %3) #9
  %.not.i.i5 = icmp eq ptr %20, null
  br i1 %.not.i.i5, label %21, label %23

21:                                               ; preds = %_ZNK14PhaseIdealLoop8get_loopEP4Node.exit
  %22 = load ptr, ptr @g_assert_poison, align 8
  store i8 88, ptr %22, align 1
  tail call void (ptr, i32, ptr, ptr, ...) @_Z15report_vm_errorPKciS0_S0_z(ptr noundef nonnull @.str.17, i32 noundef 976, ptr noundef nonnull @.str.22, ptr noundef nonnull @.str.23) #10
  unreachable

23:                                               ; preds = %_ZNK14PhaseIdealLoop8get_loopEP4Node.exit
  %24 = getelementptr inbounds i8, ptr %20, i64 40
  %25 = load i32, ptr %24, align 8
  %26 = load i32, ptr %10, align 8
  %27 = icmp ugt i32 %26, %25
  br i1 %27, label %_ZNK14PhaseIdealLoop8has_nodeEPK4Node.exit.i8, label %_ZNK14PhaseIdealLoop8has_nodeEPK4Node.exit.thread.i6

_ZNK14PhaseIdealLoop8has_nodeEPK4Node.exit.i8:    ; preds = %23
  %28 = getelementptr inbounds i8, ptr %0, i64 40
  %29 = load ptr, ptr %28, align 8
  %30 = zext i32 %25 to i64
  %31 = getelementptr inbounds ptr, ptr %29, i64 %30
  %32 = load ptr, ptr %31, align 8
  %.not.i9 = icmp eq ptr %32, null
  br i1 %.not.i9, label %_ZNK14PhaseIdealLoop8has_nodeEPK4Node.exit.thread.i6, label %_ZNK14PhaseIdealLoop8get_loopEP4Node.exit10

_ZNK14PhaseIdealLoop8has_nodeEPK4Node.exit.thread.i6: ; preds = %_ZNK14PhaseIdealLoop8has_nodeEPK4Node.exit.i8, %23
  %33 = getelementptr inbounds i8, ptr %0, i64 64
  %34 = load ptr, ptr %33, align 8
  br label %_ZNK14PhaseIdealLoop8get_loopEP4Node.exit10

_ZNK14PhaseIdealLoop8get_loopEP4Node.exit10:      ; preds = %_ZNK14PhaseIdealLoop8has_nodeEPK4Node.exit.i8, %_ZNK14PhaseIdealLoop8has_nodeEPK4Node.exit.thread.i6
  %.0.i7 = phi ptr [ %34, %_ZNK14PhaseIdealLoop8has_nodeEPK4Node.exit.thread.i6 ], [ %32, %_ZNK14PhaseIdealLoop8has_nodeEPK4Node.exit.i8 ]
  %35 = tail call noundef zeroext i1 @_ZNK13IdealLoopTree9is_memberEPKS_(ptr noundef nonnull align 8 dereferenceable(113) %.0.i7, ptr noundef %.0.i) #9
  %36 = xor i1 %35, true
  ret i1 %36
}